; Function Attrs: mustprogress uwtable
define dso_local void @_ZN14ArgumentParser8Instance4BindERNSt7__cxx1112basic_stringIcSt11char_traitsIcESaIcEEE(ptr noundef nonnull align 8 captures(none) dereferenceable(97) %0, ptr noundef nonnull align 8 dereferenceable(32) %1) local_unnamed_addr #4 align 2 personality ptr @__gxx_personality_v0 {
_ZNSt8functionIFN14ArgumentParser8ContinueESt17basic_string_viewIcSt11char_traitsIcEEEEC2EOS7_.exit.i.i:
  %2 = alloca %"class.std::function.23", align 8
  %3 = ptrtoint ptr %1 to i64
  %4 = getelementptr inbounds nuw i8, ptr %0, i64 64
  call void @llvm.lifetime.start.p0(i64 32, ptr nonnull %2) #23
  %5 = getelementptr inbounds nuw i8, ptr %2, i64 24
  call void @llvm.memcpy.p0.p0.i64(ptr noundef nonnull align 8 dereferenceable(32) %2, ptr noundef nonnull align 8 dereferenceable(32) %4, i64 16, i1 false), !tbaa.struct !27
  store i64 %3, ptr %4, align 8
  %.sroa.2.0..sroa_idx = getelementptr inbounds nuw i8, ptr %0, i64 72
  store i64 0, ptr %.sroa.2.0..sroa_idx, align 8
  %6 = getelementptr inbounds nuw i8, ptr %2, i64 16
  %7 = getelementptr inbounds nuw i8, ptr %0, i64 80
  %8 = load ptr, ptr %7, align 8, !tbaa !29
  store ptr %8, ptr %6, align 8, !tbaa !29
  store ptr @"_ZNSt17_Function_handlerIFN14ArgumentParser8ContinueESt17basic_string_viewIcSt11char_traitsIcEEEZNS0_8Instance4BindERNSt7__cxx1112basic_stringIcS4_SaIcEEEE3$_0E10_M_managerERSt9_Any_dataRKSF_St18_Manager_operation", ptr %7, align 8, !tbaa !29
  %9 = getelementptr inbounds nuw i8, ptr %0, i64 88
  %10 = load ptr, ptr %9, align 8, !tbaa !29
  store ptr %10, ptr %5, align 8, !tbaa !29
  store ptr @"_ZNSt17_Function_handlerIFN14ArgumentParser8ContinueESt17basic_string_viewIcSt11char_traitsIcEEEZNS0_8Instance4BindERNSt7__cxx1112basic_stringIcS4_SaIcEEEE3$_0E9_M_invokeERKSt9_Any_dataOS5_", ptr %9, align 8, !tbaa !29
  %.not.i.i.i = icmp eq ptr %8, null
  br i1 %.not.i.i.i, label %_ZNSt14_Function_baseD2Ev.exit, label %11

11:                                               ; preds = %_ZNSt8functionIFN14ArgumentParser8ContinueESt17basic_string_viewIcSt11char_traitsIcEEEEC2EOS7_.exit.i.i
  %12 = invoke noundef zeroext i1 %8(ptr noundef nonnull align 8 dereferenceable(32) %2, ptr noundef nonnull align 8 dereferenceable(32) %2, i32 noundef 3)
          to label %_ZNSt14_Function_baseD2Ev.exit unwind label %13

13:                                               ; preds = %11
  %14 = landingpad { ptr, i32 }
          catch ptr null
  %15 = extractvalue { ptr, i32 } %14, 0
  call void @__clang_call_terminate(ptr %15) #24
  unreachable

_ZNSt14_Function_baseD2Ev.exit:                   ; preds = %11, %_ZNSt8functionIFN14ArgumentParser8ContinueESt17basic_string_viewIcSt11char_traitsIcEEEEC2EOS7_.exit.i.i
  call void @llvm.lifetime.end.p0(i64 32, ptr nonnull %2) #23
  %16 = getelementptr inbounds nuw i8, ptr %0, i64 56
  store i64 1, ptr %16, align 8, !tbaa !30
  ret void
}